target datalayout = "e-m:e-p270:32:32-p271:32:32-p272:64:64-i64:64-i128:128-f80:128-n8:16:32:64-S128"
target triple = "x86_64-pc-linux-gnu"

%struct.xlist = type { i32, i32, ptr, ptr, ptr, ptr, %union.pthread_rwlock_t, ptr, ptr, [0 x %struct.listNode] }
%union.pthread_rwlock_t = type { %struct.__pthread_rwlock_arch_t }
%struct.__pthread_rwlock_arch_t = type { i32, i32, i32, i32, i32, i32, i32, i32, i8, [7 x i8], i64, i32 }
%struct.listNode = type { ptr, ptr }
%struct.listIterator = type { i32, ptr, ptr, ptr, ptr }

@.str.2 = private unnamed_addr constant [32 x i8] c"%s: pthread_rwlock_wrlock(): %m\00", align 1
@.str.3 = private unnamed_addr constant [32 x i8] c"%s: pthread_rwlock_unlock(): %m\00", align 1
@__func__.list_delete_first = private unnamed_addr constant [18 x i8] c"list_delete_first\00", align 1

; Function Attrs: nounwind uwtable
define internal ptr @_list_node_destroy(ptr noundef %0, ptr noundef %1) #0 {
  %3 = alloca ptr, align 8
  %4 = alloca ptr, align 8
  %5 = alloca ptr, align 8
  %6 = alloca ptr, align 8
  %7 = alloca ptr, align 8
  %8 = alloca ptr, align 8
  %9 = alloca i32, align 4
  store ptr %0, ptr %4, align 8
  store ptr %1, ptr %5, align 8
  call void @llvm.lifetime.start.p0(i64 8, ptr %6) #6
  call void @llvm.lifetime.start.p0(i64 8, ptr %7) #6
  call void @llvm.lifetime.start.p0(i64 8, ptr %8) #6
  %10 = load ptr, ptr %5, align 8
  %11 = load ptr, ptr %10, align 8
  store ptr %11, ptr %7, align 8
  %12 = icmp ne ptr %11, null
  br i1 %12, label %14, label %13

13:                                               ; preds = %2
  store ptr null, ptr %3, align 8
  store i32 1, ptr %9, align 4
  br label %80

14:                                               ; preds = %2
  %15 = load ptr, ptr %7, align 8
  %16 = getelementptr inbounds nuw %struct.listNode, ptr %15, i32 0, i32 0
  %17 = load ptr, ptr %16, align 8
  store ptr %17, ptr %6, align 8
  %18 = load ptr, ptr %7, align 8
  %19 = getelementptr inbounds nuw %struct.listNode, ptr %18, i32 0, i32 1
  %20 = load ptr, ptr %19, align 8
  %21 = load ptr, ptr %5, align 8
  store ptr %20, ptr %21, align 8
  %22 = icmp ne ptr %20, null
  br i1 %22, label %27, label %23

23:                                               ; preds = %14
  %24 = load ptr, ptr %5, align 8
  %25 = load ptr, ptr %4, align 8
  %26 = getelementptr inbounds nuw %struct.xlist, ptr %25, i32 0, i32 3
  store ptr %24, ptr %26, align 8
  br label %27

27:                                               ; preds = %23, %14
  %28 = load ptr, ptr %4, align 8
  %29 = getelementptr inbounds nuw %struct.xlist, ptr %28, i32 0, i32 1
  %30 = load i32, ptr %29, align 4
  %31 = add nsw i32 %30, -1
  store i32 %31, ptr %29, align 4
  %32 = load ptr, ptr %4, align 8
  %33 = getelementptr inbounds nuw %struct.xlist, ptr %32, i32 0, i32 4
  %34 = load ptr, ptr %33, align 8
  store ptr %34, ptr %8, align 8
  br label %35

35:                                               ; preds = %66, %27
  %36 = load ptr, ptr %8, align 8
  %37 = icmp ne ptr %36, null
  br i1 %37, label %38, label %70

38:                                               ; preds = %35
  %39 = load ptr, ptr %8, align 8
  %40 = getelementptr inbounds nuw %struct.listIterator, ptr %39, i32 0, i32 2
  %41 = load ptr, ptr %40, align 8
  %42 = load ptr, ptr %7, align 8
  %43 = icmp eq ptr %41, %42
  br i1 %43, label %44, label %53

44:                                               ; preds = %38
  %45 = load ptr, ptr %7, align 8
  %46 = getelementptr inbounds nuw %struct.listNode, ptr %45, i32 0, i32 1
  %47 = load ptr, ptr %46, align 8
  %48 = load ptr, ptr %8, align 8
  %49 = getelementptr inbounds nuw %struct.listIterator, ptr %48, i32 0, i32 2
  store ptr %47, ptr %49, align 8
  %50 = load ptr, ptr %5, align 8
  %51 = load ptr, ptr %8, align 8
  %52 = getelementptr inbounds nuw %struct.listIterator, ptr %51, i32 0, i32 3
  store ptr %50, ptr %52, align 8
  br label %65

53:                                               ; preds = %38
  %54 = load ptr, ptr %8, align 8
  %55 = getelementptr inbounds nuw %struct.listIterator, ptr %54, i32 0, i32 3
  %56 = load ptr, ptr %55, align 8
  %57 = load ptr, ptr %7, align 8
  %58 = getelementptr inbounds nuw %struct.listNode, ptr %57, i32 0, i32 1
  %59 = icmp eq ptr %56, %58
  br i1 %59, label %60, label %64

60:                                               ; preds = %53
  %61 = load ptr, ptr %5, align 8
  %62 = load ptr, ptr %8, align 8
  %63 = getelementptr inbounds nuw %struct.listIterator, ptr %62, i32 0, i32 3
  store ptr %61, ptr %63, align 8
  br label %64

64:                                               ; preds = %60, %53
  br label %65

65:                                               ; preds = %64, %44
  br label %66

66:                                               ; preds = %65
  %67 = load ptr, ptr %8, align 8
  %68 = getelementptr inbounds nuw %struct.listIterator, ptr %67, i32 0, i32 4
  %69 = load ptr, ptr %68, align 8
  store ptr %69, ptr %8, align 8
  br label %35, !llvm.loop !34

70:                                               ; preds = %35
  %71 = load ptr, ptr %4, align 8
  %72 = getelementptr inbounds nuw %struct.xlist, ptr %71, i32 0, i32 7
  %73 = load ptr, ptr %72, align 8
  %74 = load ptr, ptr %7, align 8
  %75 = getelementptr inbounds nuw %struct.listNode, ptr %74, i32 0, i32 1
  store ptr %73, ptr %75, align 8
  %76 = load ptr, ptr %7, align 8
  %77 = load ptr, ptr %4, align 8
  %78 = getelementptr inbounds nuw %struct.xlist, ptr %77, i32 0, i32 7
  store ptr %76, ptr %78, align 8
  %79 = load ptr, ptr %6, align 8
  store ptr %79, ptr %3, align 8
  store i32 1, ptr %9, align 4
  br label %80

80:                                               ; preds = %70, %13
  call void @llvm.lifetime.end.p0(i64 8, ptr %8) #6
  call void @llvm.lifetime.end.p0(i64 8, ptr %7) #6
  call void @llvm.lifetime.end.p0(i64 8, ptr %6) #6
  %81 = load ptr, ptr %3, align 8
  ret ptr %81
}

; Function Attrs: nounwind uwtable
define dso_local i32 @list_delete_first(ptr noundef %0, ptr noundef %1, ptr noundef %2) #0 {
  %4 = alloca ptr, align 8
  %5 = alloca ptr, align 8
  %6 = alloca ptr, align 8
  %7 = alloca ptr, align 8
  %8 = alloca ptr, align 8
  %9 = alloca i32, align 4
  %10 = alloca i32, align 4
  %11 = alloca i32, align 4
  %12 = alloca i32, align 4
  %13 = alloca i32, align 4
  store ptr %0, ptr %4, align 8
  store ptr %1, ptr %5, align 8
  store ptr %2, ptr %6, align 8
  call void @llvm.lifetime.start.p0(i64 8, ptr %7) #6
  call void @llvm.lifetime.start.p0(i64 8, ptr %8) #6
  call void @llvm.lifetime.start.p0(i64 4, ptr %9) #6
  store i32 0, ptr %9, align 4
  br label %14

14:                                               ; preds = %3
  call void @llvm.lifetime.start.p0(i64 4, ptr %10) #6
  %15 = load ptr, ptr %4, align 8
  %16 = getelementptr inbounds nuw %struct.xlist, ptr %15, i32 0, i32 6
  %17 = call i32 @pthread_rwlock_wrlock(ptr noundef %16) #6
  store i32 %17, ptr %10, align 4
  %18 = load i32, ptr %10, align 4
  %19 = icmp ne i32 %18, 0
  br i1 %19, label %20, label %23

20:                                               ; preds = %14
  %21 = load i32, ptr %10, align 4
  %22 = call ptr @__errno_location() #7
  store i32 %21, ptr %22, align 4
  call void (ptr, ...) @fatal_abort(ptr noundef @.str.2, ptr noundef @__func__.list_delete_first) #8
  unreachable

23:                                               ; preds = %14
  call void @llvm.lifetime.end.p0(i64 4, ptr %10) #6
  br label %24

24:                                               ; preds = %23
  br label %25

25:                                               ; preds = %24
  %26 = load ptr, ptr %4, align 8
  %27 = getelementptr inbounds nuw %struct.xlist, ptr %26, i32 0, i32 2
  store ptr %27, ptr %7, align 8
  br label %28

28:                                               ; preds = %71, %25
  %29 = load ptr, ptr %7, align 8
  %30 = load ptr, ptr %29, align 8
  %31 = icmp ne ptr %30, null
  br i1 %31, label %32, label %72

32:                                               ; preds = %28
  call void @llvm.lifetime.start.p0(i64 4, ptr %11) #6
  %33 = load ptr, ptr %5, align 8
  %34 = load ptr, ptr %7, align 8
  %35 = load ptr, ptr %34, align 8
  %36 = getelementptr inbounds nuw %struct.listNode, ptr %35, i32 0, i32 0
  %37 = load ptr, ptr %36, align 8
  %38 = load ptr, ptr %6, align 8
  %39 = call i32 %33(ptr noundef %37, ptr noundef %38)
  store i32 %39, ptr %11, align 4
  %40 = load i32, ptr %11, align 4
  %41 = icmp sgt i32 %40, 0
  br i1 %41, label %42, label %59

42:                                               ; preds = %32
  %43 = load ptr, ptr %4, align 8
  %44 = load ptr, ptr %7, align 8
  %45 = call ptr @_list_node_destroy(ptr noundef %43, ptr noundef %44)
  store ptr %45, ptr %8, align 8
  %46 = icmp ne ptr %45, null
  br i1 %46, label %47, label %58

47:                                               ; preds = %42
  %48 = load ptr, ptr %4, align 8
  %49 = getelementptr inbounds nuw %struct.xlist, ptr %48, i32 0, i32 5
  %50 = load ptr, ptr %49, align 8
  %51 = icmp ne ptr %50, null
  br i1 %51, label %52, label %57

52:                                               ; preds = %47
  %53 = load ptr, ptr %4, align 8
  %54 = getelementptr inbounds nuw %struct.xlist, ptr %53, i32 0, i32 5
  %55 = load ptr, ptr %54, align 8
  %56 = load ptr, ptr %8, align 8
  call void %55(ptr noundef %56)
  br label %57

57:                                               ; preds = %52, %47
  br label %58

58:                                               ; preds = %57, %42
  store i32 1, ptr %9, align 4
  store i32 5, ptr %12, align 4
  br label %69

59:                                               ; preds = %32
  %60 = load i32, ptr %11, align 4
  %61 = icmp slt i32 %60, 0
  br i1 %61, label %62, label %63

62:                                               ; preds = %59
  store i32 -1, ptr %9, align 4
  store i32 5, ptr %12, align 4
  br label %69

63:                                               ; preds = %59
  %64 = load ptr, ptr %7, align 8
  %65 = load ptr, ptr %64, align 8
  %66 = getelementptr inbounds nuw %struct.listNode, ptr %65, i32 0, i32 1
  store ptr %66, ptr %7, align 8
  br label %67

67:                                               ; preds = %63
  br label %68

68:                                               ; preds = %67
  store i32 0, ptr %12, align 4
  br label %69

69:                                               ; preds = %68, %62, %58
  call void @llvm.lifetime.end.p0(i64 4, ptr %11) #6
  %70 = load i32, ptr %12, align 4
  switch i32 %70, label %86 [
    i32 0, label %71
    i32 5, label %72
  ]

71:                                               ; preds = %69
  br label %28, !llvm.loop !18

72:                                               ; preds = %69, %28
  br label %73

73:                                               ; preds = %72
  call void @llvm.lifetime.start.p0(i64 4, ptr %13) #6
  %74 = load ptr, ptr %4, align 8
  %75 = getelementptr inbounds nuw %struct.xlist, ptr %74, i32 0, i32 6
  %76 = call i32 @pthread_rwlock_unlock(ptr noundef %75) #6
  store i32 %76, ptr %13, align 4
  %77 = load i32, ptr %13, align 4
  %78 = icmp ne i32 %77, 0
  br i1 %78, label %79, label %82

79:                                               ; preds = %73
  %80 = load i32, ptr %13, align 4
  %81 = call ptr @__errno_location() #7
  store i32 %80, ptr %81, align 4
  call void (ptr, ...) @fatal_abort(ptr noundef @.str.3, ptr noundef @__func__.list_delete_first) #8
  unreachable

82:                                               ; preds = %73
  call void @llvm.lifetime.end.p0(i64 4, ptr %13) #6
  br label %83

83:                                               ; preds = %82
  br label %84

84:                                               ; preds = %83
  %85 = load i32, ptr %9, align 4
  store i32 1, ptr %12, align 4
  call void @llvm.lifetime.end.p0(i64 4, ptr %9) #6
  call void @llvm.lifetime.end.p0(i64 8, ptr %8) #6
  call void @llvm.lifetime.end.p0(i64 8, ptr %7) #6
  ret i32 %85

86:                                               ; preds = %69
  unreachable
}