; Function Attrs: nounwind uwtable
define dso_local range(i32 -1, 2) i32 @list_delete_first(ptr noundef %0, ptr noundef readonly captures(none) %1, ptr noundef %2) #0 {
  %4 = getelementptr inbounds nuw i8, ptr %0, i64 40
  %5 = tail call i32 @pthread_rwlock_wrlock(ptr noundef nonnull %4) #9
  %.not = icmp eq i32 %5, 0
  br i1 %.not, label %.preheader, label %7

.preheader:                                       ; preds = %3
  %.040 = getelementptr inbounds nuw i8, ptr %0, i64 8
  %6 = load ptr, ptr %.040, align 8
  %.not2941 = icmp eq ptr %6, null
  br i1 %.not2941, label %.thread, label %.lr.ph

7:                                                ; preds = %3
  %8 = tail call ptr @__errno_location() #10
  store i32 %5, ptr %8, align 4
  tail call void (ptr, ...) @fatal_abort(ptr noundef nonnull @.str.2, ptr noundef nonnull @__func__.list_delete_first) #11
  unreachable

.lr.ph:                                           ; preds = %.preheader, %47
  %9 = phi ptr [ %49, %47 ], [ %6, %.preheader ]
  %.042 = phi ptr [ %.0, %47 ], [ %.040, %.preheader ]
  %10 = load ptr, ptr %9, align 8
  %11 = tail call i32 %1(ptr noundef %10, ptr noundef %2) #9
  %12 = icmp sgt i32 %11, 0
  br i1 %12, label %13, label %45

13:                                               ; preds = %.lr.ph
  %14 = load ptr, ptr %.042, align 8
  %.not.i = icmp eq ptr %14, null
  br i1 %.not.i, label %.thread, label %15

15:                                               ; preds = %13
  %16 = load ptr, ptr %14, align 8
  %17 = getelementptr inbounds nuw i8, ptr %14, i64 8
  %18 = load ptr, ptr %17, align 8
  store ptr %18, ptr %.042, align 8
  %.not28.i = icmp eq ptr %18, null
  br i1 %.not28.i, label %19, label %21

19:                                               ; preds = %15
  %20 = getelementptr inbounds nuw i8, ptr %0, i64 16
  store ptr %.042, ptr %20, align 8
  br label %21

21:                                               ; preds = %19, %15
  %22 = getelementptr inbounds nuw i8, ptr %0, i64 4
  %23 = load i32, ptr %22, align 4
  %24 = add nsw i32 %23, -1
  store i32 %24, ptr %22, align 4
  %25 = getelementptr inbounds nuw i8, ptr %0, i64 24
  %.030.i = load ptr, ptr %25, align 8
  %.not2931.i = icmp eq ptr %.030.i, null
  br i1 %.not2931.i, label %_list_node_destroy.exit, label %.lr.ph.i

.lr.ph.i:                                         ; preds = %21, %37
  %.032.i = phi ptr [ %.0.i, %37 ], [ %.030.i, %21 ]
  %26 = getelementptr inbounds nuw i8, ptr %.032.i, i64 16
  %27 = load ptr, ptr %26, align 8
  %28 = icmp eq ptr %27, %14
  br i1 %28, label %29, label %32

29:                                               ; preds = %.lr.ph.i
  %30 = load ptr, ptr %17, align 8
  store ptr %30, ptr %26, align 8
  %31 = getelementptr inbounds nuw i8, ptr %.032.i, i64 24
  store ptr %.042, ptr %31, align 8
  br label %37

32:                                               ; preds = %.lr.ph.i
  %33 = getelementptr inbounds nuw i8, ptr %.032.i, i64 24
  %34 = load ptr, ptr %33, align 8
  %35 = icmp eq ptr %34, %17
  br i1 %35, label %36, label %37

36:                                               ; preds = %32
  store ptr %.042, ptr %33, align 8
  br label %37

37:                                               ; preds = %36, %32, %29
  %38 = getelementptr inbounds nuw i8, ptr %.032.i, i64 32
  %.0.i = load ptr, ptr %38, align 8
  %.not29.i = icmp eq ptr %.0.i, null
  br i1 %.not29.i, label %_list_node_destroy.exit, label %.lr.ph.i, !llvm.loop !17

_list_node_destroy.exit:                          ; preds = %37, %21
  %39 = getelementptr inbounds nuw i8, ptr %0, i64 96
  %40 = load ptr, ptr %39, align 8
  store ptr %40, ptr %17, align 8
  store ptr %14, ptr %39, align 8
  %.not30 = icmp eq ptr %16, null
  br i1 %.not30, label %.thread, label %41

41:                                               ; preds = %_list_node_destroy.exit
  %42 = getelementptr inbounds nuw i8, ptr %0, i64 32
  %43 = load ptr, ptr %42, align 8
  %.not31 = icmp eq ptr %43, null
  br i1 %.not31, label %.thread, label %44

44:                                               ; preds = %41
  tail call void %43(ptr noundef nonnull %16) #9
  br label %.thread

45:                                               ; preds = %.lr.ph
  %46 = icmp slt i32 %11, 0
  br i1 %46, label %.thread, label %47

47:                                               ; preds = %45
  %48 = load ptr, ptr %.042, align 8
  %.0 = getelementptr inbounds nuw i8, ptr %48, i64 8
  %49 = load ptr, ptr %.0, align 8
  %.not29 = icmp eq ptr %49, null
  br i1 %.not29, label %.thread, label %.lr.ph

.thread:                                          ; preds = %47, %45, %.preheader, %13, %_list_node_destroy.exit, %44, %41
  %.2 = phi i32 [ 1, %_list_node_destroy.exit ], [ 1, %44 ], [ 1, %41 ], [ 1, %13 ], [ 0, %.preheader ], [ 0, %47 ], [ -1, %45 ]
  %50 = tail call i32 @pthread_rwlock_unlock(ptr noundef nonnull %4) #9
  %.not32 = icmp eq i32 %50, 0
  br i1 %.not32, label %53, label %51

51:                                               ; preds = %.thread
  %52 = tail call ptr @__errno_location() #10
  store i32 %50, ptr %52, align 4
  tail call void (ptr, ...) @fatal_abort(ptr noundef nonnull @.str.3, ptr noundef nonnull @__func__.list_delete_first) #11
  unreachable

53:                                               ; preds = %.thread
  ret i32 %.2
}